; Function Attrs: mustprogress nounwind uwtable
define hidden void @_ZN11JvmtiTagMapD2Ev(ptr noundef nonnull align 8 dereferenceable(122) %0) unnamed_addr #0 align 2 {
  %2 = load ptr, ptr %0, align 8
  %3 = getelementptr inbounds i8, ptr %2, i64 376
  store volatile ptr null, ptr %3, align 8
  %4 = getelementptr inbounds i8, ptr %0, i64 112
  %5 = load ptr, ptr %4, align 8
  %6 = icmp eq ptr %5, null
  br i1 %6, label %8, label %7

7:                                                ; preds = %1
  tail call void @_ZN16JvmtiTagMapTableD1Ev(ptr noundef nonnull align 8 dereferenceable(24) %5) #14
  tail call void @_Z8FreeHeapPv(ptr noundef nonnull %5) #14
  br label %8

8:                                                ; preds = %7, %1
  store ptr null, ptr %4, align 8
  %9 = getelementptr inbounds i8, ptr %0, i64 8
  tail call void @_ZN5MutexD2Ev(ptr noundef nonnull align 8 dereferenceable(104) %9) #14
  ret void
}